target datalayout = "e-m:e-p270:32:32-p271:32:32-p272:64:64-i64:64-i128:128-f80:128-n8:16:32:64-S128"
target triple = "x86_64-pc-linux-gnu"

; Function Attrs: nounwind uwtable
define internal void @unquantize_intra_differences_int(ptr noundef %0, i32 noundef %1, i32 noundef %2, ptr noundef %3) #0 {
  %5 = alloca ptr, align 8
  %6 = alloca i32, align 4
  %7 = alloca i32, align 4
  %8 = alloca ptr, align 8
  %9 = alloca i32, align 4
  %10 = alloca i32, align 4
  %11 = alloca i32, align 4
  %12 = alloca i32, align 4
  store ptr %0, ptr %5, align 8, !tbaa !3
  store i32 %1, ptr %6, align 4, !tbaa !8
  store i32 %2, ptr %7, align 4, !tbaa !8
  store ptr %3, ptr %8, align 8, !tbaa !3
  call void @llvm.lifetime.start.p0(i64 4, ptr %9) #7
  call void @llvm.lifetime.start.p0(i64 4, ptr %10) #7
  call void @llvm.lifetime.start.p0(i64 4, ptr %11) #7
  store i32 0, ptr %9, align 4, !tbaa !8
  br label %13

13:                                               ; preds = %83, %4
  %14 = load i32, ptr %9, align 4, !tbaa !8
  %15 = load i32, ptr %7, align 4, !tbaa !8
  %16 = icmp slt i32 %14, %15
  br i1 %16, label %17, label %86

17:                                               ; preds = %13
  store i32 0, ptr %11, align 4, !tbaa !8
  br label %18

18:                                               ; preds = %79, %17
  %19 = load i32, ptr %11, align 4, !tbaa !8
  %20 = icmp slt i32 %19, 3
  br i1 %20, label %21, label %82

21:                                               ; preds = %18
  call void @llvm.lifetime.start.p0(i64 4, ptr %12) #7
  %22 = load ptr, ptr %8, align 8, !tbaa !3
  %23 = load i32, ptr %9, align 4, !tbaa !8
  %24 = load i32, ptr %6, align 4, !tbaa !8
  %25 = mul nsw i32 %23, %24
  %26 = mul nsw i32 %25, 3
  %27 = load i32, ptr %11, align 4, !tbaa !8
  %28 = add nsw i32 %26, %27
  %29 = sext i32 %28 to i64
  %30 = getelementptr inbounds i32, ptr %22, i64 %29
  %31 = load i32, ptr %30, align 4, !tbaa !8
  store i32 %31, ptr %12, align 4, !tbaa !8
  %32 = load i32, ptr %12, align 4, !tbaa !8
  %33 = load ptr, ptr %5, align 8, !tbaa !3
  %34 = load i32, ptr %9, align 4, !tbaa !8
  %35 = load i32, ptr %6, align 4, !tbaa !8
  %36 = mul nsw i32 %34, %35
  %37 = mul nsw i32 %36, 3
  %38 = load i32, ptr %11, align 4, !tbaa !8
  %39 = add nsw i32 %37, %38
  %40 = sext i32 %39 to i64
  %41 = getelementptr inbounds i32, ptr %33, i64 %40
  store i32 %32, ptr %41, align 4, !tbaa !8
  store i32 1, ptr %10, align 4, !tbaa !8
  br label %42

42:                                               ; preds = %75, %21
  %43 = load i32, ptr %10, align 4, !tbaa !8
  %44 = load i32, ptr %6, align 4, !tbaa !8
  %45 = icmp slt i32 %43, %44
  br i1 %45, label %46, label %78

46:                                               ; preds = %42
  %47 = load ptr, ptr %8, align 8, !tbaa !3
  %48 = load i32, ptr %9, align 4, !tbaa !8
  %49 = load i32, ptr %6, align 4, !tbaa !8
  %50 = mul nsw i32 %48, %49
  %51 = mul nsw i32 %50, 3
  %52 = load i32, ptr %10, align 4, !tbaa !8
  %53 = mul nsw i32 %52, 3
  %54 = add nsw i32 %51, %53
  %55 = load i32, ptr %11, align 4, !tbaa !8
  %56 = add nsw i32 %54, %55
  %57 = sext i32 %56 to i64
  %58 = getelementptr inbounds i32, ptr %47, i64 %57
  %59 = load i32, ptr %58, align 4, !tbaa !8
  %60 = load i32, ptr %12, align 4, !tbaa !8
  %61 = add nsw i32 %60, %59
  store i32 %61, ptr %12, align 4, !tbaa !8
  %62 = load i32, ptr %12, align 4, !tbaa !8
  %63 = load ptr, ptr %5, align 8, !tbaa !3
  %64 = load i32, ptr %9, align 4, !tbaa !8
  %65 = load i32, ptr %6, align 4, !tbaa !8
  %66 = mul nsw i32 %64, %65
  %67 = mul nsw i32 %66, 3
  %68 = load i32, ptr %10, align 4, !tbaa !8
  %69 = mul nsw i32 %68, 3
  %70 = add nsw i32 %67, %69
  %71 = load i32, ptr %11, align 4, !tbaa !8
  %72 = add nsw i32 %70, %71
  %73 = sext i32 %72 to i64
  %74 = getelementptr inbounds i32, ptr %63, i64 %73
  store i32 %62, ptr %74, align 4, !tbaa !8
  br label %75

75:                                               ; preds = %46
  %76 = load i32, ptr %10, align 4, !tbaa !8
  %77 = add nsw i32 %76, 1
  store i32 %77, ptr %10, align 4, !tbaa !8
  br label %42, !llvm.loop !65

78:                                               ; preds = %42
  call void @llvm.lifetime.end.p0(i64 4, ptr %12) #7
  br label %79

79:                                               ; preds = %78
  %80 = load i32, ptr %11, align 4, !tbaa !8
  %81 = add nsw i32 %80, 1
  store i32 %81, ptr %11, align 4, !tbaa !8
  br label %18, !llvm.loop !66

82:                                               ; preds = %18
  br label %83

83:                                               ; preds = %82
  %84 = load i32, ptr %9, align 4, !tbaa !8
  %85 = add nsw i32 %84, 1
  store i32 %85, ptr %9, align 4, !tbaa !8
  br label %13, !llvm.loop !67

86:                                               ; preds = %13
  call void @llvm.lifetime.end.p0(i64 4, ptr %11) #7
  call void @llvm.lifetime.end.p0(i64 4, ptr %10) #7
  call void @llvm.lifetime.end.p0(i64 4, ptr %9) #7
  ret void
}