; Function Attrs: nofree norecurse nosync nounwind memory(argmem: readwrite) uwtable
define internal fastcc void @unquantize_intra_differences_int(ptr noundef nonnull writeonly captures(none) %0, i32 noundef %1, i32 noundef range(i32 1, 2147483647) %2, ptr noundef readonly captures(none) %3) unnamed_addr #6 {
  %invariant.op = mul i32 %1, 3
  %5 = icmp sgt i32 %1, 1
  %wide.trip.count57 = zext nneg i32 %2 to i64
  br i1 %5, label %.preheader.us.preheader, label %.preheader

.preheader.us.preheader:                          ; preds = %4
  %wide.trip.count48 = zext nneg i32 %1 to i64
  br label %.preheader.us

.preheader.us:                                    ; preds = %.preheader.us.preheader, %.split.us.us
  %indvars.iv54 = phi i64 [ 0, %.preheader.us.preheader ], [ %indvars.iv.next55, %.split.us.us ]
  %6 = trunc nuw nsw i64 %indvars.iv54 to i32
  %.reass.us = mul i32 %invariant.op, %6
  %7 = trunc i64 %indvars.iv54 to i32
  %8 = mul i32 %1, %7
  %9 = sext i32 %.reass.us to i64
  br label %.lr.ph.us.us

.lr.ph.us.us:                                     ; preds = %._crit_edge.us.us, %.preheader.us
  %indvars.iv50 = phi i64 [ %indvars.iv.next51, %._crit_edge.us.us ], [ 0, %.preheader.us ]
  %10 = add nsw i64 %indvars.iv50, %9
  %11 = getelementptr inbounds i32, ptr %3, i64 %10
  %12 = load i32, ptr %11, align 4, !tbaa !3
  %13 = getelementptr inbounds i32, ptr %0, i64 %10
  store i32 %12, ptr %13, align 4, !tbaa !3
  br label %14

14:                                               ; preds = %14, %.lr.ph.us.us
  %indvars.iv45 = phi i64 [ %indvars.iv.next46, %14 ], [ 1, %.lr.ph.us.us ]
  %.032.us.us = phi i32 [ %22, %14 ], [ %12, %.lr.ph.us.us ]
  %15 = trunc i64 %indvars.iv45 to i32
  %16 = add i32 %8, %15
  %17 = mul i32 %16, 3
  %18 = sext i32 %17 to i64
  %19 = add nsw i64 %indvars.iv50, %18
  %20 = getelementptr inbounds i32, ptr %3, i64 %19
  %21 = load i32, ptr %20, align 4, !tbaa !3
  %22 = add nsw i32 %21, %.032.us.us
  %23 = getelementptr inbounds i32, ptr %0, i64 %19
  store i32 %22, ptr %23, align 4, !tbaa !3
  %indvars.iv.next46 = add nuw nsw i64 %indvars.iv45, 1
  %exitcond49.not = icmp eq i64 %indvars.iv.next46, %wide.trip.count48
  br i1 %exitcond49.not, label %._crit_edge.us.us, label %14, !llvm.loop !54

._crit_edge.us.us:                                ; preds = %14
  %indvars.iv.next51 = add nuw nsw i64 %indvars.iv50, 1
  %exitcond53.not = icmp eq i64 %indvars.iv.next51, 3
  br i1 %exitcond53.not, label %.split.us.us, label %.lr.ph.us.us, !llvm.loop !55

.split.us.us:                                     ; preds = %._crit_edge.us.us
  %indvars.iv.next55 = add nuw nsw i64 %indvars.iv54, 1
  %exitcond58.not = icmp eq i64 %indvars.iv.next55, %wide.trip.count57
  br i1 %exitcond58.not, label %.split37.us, label %.preheader.us, !llvm.loop !56

.preheader:                                       ; preds = %4, %.split
  %indvars.iv41 = phi i64 [ %indvars.iv.next42, %.split ], [ 0, %4 ]
  %24 = trunc nuw nsw i64 %indvars.iv41 to i32
  %.reass = mul i32 %invariant.op, %24
  %25 = sext i32 %.reass to i64
  br label %26

26:                                               ; preds = %.preheader, %26
  %indvars.iv = phi i64 [ 0, %.preheader ], [ %indvars.iv.next, %26 ]
  %27 = add nsw i64 %indvars.iv, %25
  %28 = getelementptr inbounds i32, ptr %3, i64 %27
  %29 = load i32, ptr %28, align 4, !tbaa !3
  %30 = getelementptr inbounds i32, ptr %0, i64 %27
  store i32 %29, ptr %30, align 4, !tbaa !3
  %indvars.iv.next = add nuw nsw i64 %indvars.iv, 1
  %exitcond.not = icmp eq i64 %indvars.iv.next, 3
  br i1 %exitcond.not, label %.split, label %26, !llvm.loop !55

.split:                                           ; preds = %26
  %indvars.iv.next42 = add nuw nsw i64 %indvars.iv41, 1
  %exitcond44.not = icmp eq i64 %indvars.iv.next42, %wide.trip.count57
  br i1 %exitcond44.not, label %.split37.us, label %.preheader, !llvm.loop !56

.split37.us:                                      ; preds = %.split, %.split.us.us
  ret void
}